target datalayout = "e-m:e-p270:32:32-p271:32:32-p272:64:64-i64:64-i128:128-f80:128-n8:16:32:64-S128"
target triple = "x86_64-pc-linux-gnu"

@.str.2 = private unnamed_addr constant [10 x i8] c"ENCRYPTED\00", align 1
@.str.3 = private unnamed_addr constant [10 x i8] c"MIC-CLEAR\00", align 1
@.str.4 = private unnamed_addr constant [9 x i8] c"MIC-ONLY\00", align 1
@.str.5 = private unnamed_addr constant [9 x i8] c"BAD-TYPE\00", align 1
@.str.6 = private unnamed_addr constant [17 x i8] c"Proc-Type: 4,%s\0A\00", align 1

; Function Attrs: nounwind uwtable
define void @PEM_proc_type(ptr noundef %0, i32 noundef %1) #0 {
  %3 = alloca ptr, align 8
  %4 = alloca i32, align 4
  %5 = alloca ptr, align 8
  %6 = alloca ptr, align 8
  store ptr %0, ptr %3, align 8, !tbaa !3
  store i32 %1, ptr %4, align 4, !tbaa !8
  call void @llvm.lifetime.start.p0(i64 8, ptr %5) #8
  call void @llvm.lifetime.start.p0(i64 8, ptr %6) #8
  %7 = load ptr, ptr %3, align 8, !tbaa !3
  %8 = load ptr, ptr %3, align 8, !tbaa !3
  %9 = call i64 @strlen(ptr noundef %8) #9
  %10 = getelementptr inbounds nuw i8, ptr %7, i64 %9
  store ptr %10, ptr %6, align 8, !tbaa !3
  %11 = load i32, ptr %4, align 4, !tbaa !8
  %12 = icmp eq i32 %11, 10
  br i1 %12, label %13, label %14

13:                                               ; preds = %2
  store ptr @.str.2, ptr %5, align 8, !tbaa !3
  br label %25

14:                                               ; preds = %2
  %15 = load i32, ptr %4, align 4, !tbaa !8
  %16 = icmp eq i32 %15, 30
  br i1 %16, label %17, label %18

17:                                               ; preds = %14
  store ptr @.str.3, ptr %5, align 8, !tbaa !3
  br label %24

18:                                               ; preds = %14
  %19 = load i32, ptr %4, align 4, !tbaa !8
  %20 = icmp eq i32 %19, 20
  br i1 %20, label %21, label %22

21:                                               ; preds = %18
  store ptr @.str.4, ptr %5, align 8, !tbaa !3
  br label %23

22:                                               ; preds = %18
  store ptr @.str.5, ptr %5, align 8, !tbaa !3
  br label %23

23:                                               ; preds = %22, %21
  br label %24

24:                                               ; preds = %23, %17
  br label %25

25:                                               ; preds = %24, %13
  %26 = load ptr, ptr %6, align 8, !tbaa !3
  %27 = load ptr, ptr %6, align 8, !tbaa !3
  %28 = load ptr, ptr %3, align 8, !tbaa !3
  %29 = ptrtoint ptr %27 to i64
  %30 = ptrtoint ptr %28 to i64
  %31 = sub i64 %29, %30
  %32 = sub i64 1024, %31
  %33 = load ptr, ptr %5, align 8, !tbaa !3
  %34 = call i32 (ptr, i64, ptr, ...) @BIO_snprintf(ptr noundef %26, i64 noundef %32, ptr noundef @.str.6, ptr noundef %33)
  call void @llvm.lifetime.end.p0(i64 8, ptr %6) #8
  call void @llvm.lifetime.end.p0(i64 8, ptr %5) #8
  ret void
}