; Function Attrs: nounwind uwtable
define void @PEM_proc_type(ptr noundef %0, i32 noundef %1) local_unnamed_addr #0 {
  %3 = tail call i64 @strlen(ptr noundef nonnull dereferenceable(1) %0) #9
  switch i32 %1, label %6 [
    i32 10, label %7
    i32 30, label %4
    i32 20, label %5
  ]

4:                                                ; preds = %2
  br label %7

5:                                                ; preds = %2
  br label %7

6:                                                ; preds = %2
  br label %7

7:                                                ; preds = %2, %4, %6, %5
  %.0 = phi ptr [ @.str.3, %4 ], [ @.str.4, %5 ], [ @.str.5, %6 ], [ @.str.2, %2 ]
  %8 = getelementptr inbounds nuw i8, ptr %0, i64 %3
  %9 = sub i64 1024, %3
  %10 = tail call i32 (ptr, i64, ptr, ...) @BIO_snprintf(ptr noundef nonnull %8, i64 noundef %9, ptr noundef nonnull @.str.6, ptr noundef nonnull %.0) #10
  ret void
}